; Function Attrs: nounwind uwtable
define internal fastcc i32 @pem_des3_decrypt(ptr noundef nonnull %0, ptr noundef nonnull %1, i64 noundef %2, ptr noundef nonnull %3, i64 noundef %4) unnamed_addr #2 {
  %6 = alloca %struct.mbedtls_des3_context, align 4
  %7 = alloca [24 x i8], align 16
  call void @llvm.lifetime.start.p0(i64 384, ptr nonnull %6) #12
  call void @llvm.lifetime.start.p0(i64 24, ptr nonnull %7) #12
  call void @mbedtls_des3_init(ptr noundef nonnull %6) #12
  %8 = call fastcc i32 @pem_pbkdf1(ptr noundef %7, i64 noundef 24, ptr noundef %0, ptr noundef %3, i64 noundef %4)
  %.not = icmp eq i32 %8, 0
  br i1 %.not, label %9, label %13

9:                                                ; preds = %5
  %10 = call i32 @mbedtls_des3_set3key_dec(ptr noundef nonnull %6, ptr noundef nonnull %7) #12
  %.not9 = icmp eq i32 %10, 0
  br i1 %.not9, label %11, label %13

11:                                               ; preds = %9
  %12 = call i32 @mbedtls_des3_crypt_cbc(ptr noundef nonnull %6, i32 noundef 0, i64 noundef %2, ptr noundef nonnull %0, ptr noundef nonnull %1, ptr noundef nonnull %1) #12
  br label %13

13:                                               ; preds = %9, %5, %11
  %.0 = phi i32 [ %8, %5 ], [ %10, %9 ], [ %12, %11 ]
  call void @mbedtls_des3_free(ptr noundef nonnull %6) #12
  call void @mbedtls_platform_zeroize(ptr noundef nonnull %7, i64 noundef 24) #12
  call void @llvm.lifetime.end.p0(i64 24, ptr nonnull %7) #12
  call void @llvm.lifetime.end.p0(i64 384, ptr nonnull %6) #12
  ret i32 %.0
}